; Function Attrs: nounwind uwtable
define void @var_push_dtor(ptr noundef readonly %0, ptr nocapture noundef readonly %1) local_unnamed_addr #0 {
  %3 = getelementptr inbounds i8, ptr %1, i64 8
  %4 = getelementptr inbounds i8, ptr %1, i64 9
  %5 = load i8, ptr %4, align 1
  %.not = icmp eq i8 %5, 0
  %.not.i = icmp eq ptr %0, null
  %or.cond = or i1 %.not.i, %.not
  br i1 %or.cond, label %var_tmp_var.exit.thread, label %6

6:                                                ; preds = %2
  %7 = load ptr, ptr %0, align 8
  %8 = icmp eq ptr %7, null
  br i1 %8, label %var_tmp_var.exit.thread, label %9

9:                                                ; preds = %6
  %10 = getelementptr inbounds i8, ptr %7, i64 16
  %11 = load ptr, ptr %10, align 8
  %.not34.i = icmp eq ptr %11, null
  br i1 %.not34.i, label %15, label %12

12:                                               ; preds = %9
  %13 = load i64, ptr %11, align 8
  %14 = icmp sgt i64 %13, 254
  br i1 %14, label %15, label %27

15:                                               ; preds = %12, %9
  %16 = tail call noalias dereferenceable_or_null(4096) ptr @_emalloc_large(i64 noundef 4096) #12
  tail call void @llvm.memset.p0.i64(ptr noundef nonnull align 8 dereferenceable(16) %16, i8 0, i64 16, i1 false)
  %17 = load ptr, ptr %0, align 8
  %18 = getelementptr inbounds i8, ptr %17, i64 8
  %19 = load ptr, ptr %18, align 8
  %.not35.i = icmp eq ptr %19, null
  br i1 %.not35.i, label %24, label %20

20:                                               ; preds = %15
  %21 = getelementptr inbounds i8, ptr %17, i64 16
  %22 = load ptr, ptr %21, align 8
  %23 = getelementptr inbounds i8, ptr %22, i64 8
  br label %24

24:                                               ; preds = %20, %15
  %.sink.i = phi ptr [ %23, %20 ], [ %18, %15 ]
  store ptr %16, ptr %.sink.i, align 8
  %25 = load ptr, ptr %0, align 8
  %26 = getelementptr inbounds i8, ptr %25, i64 16
  store ptr %16, ptr %26, align 8
  %.pre.i = load i64, ptr %16, align 8
  br label %27

27:                                               ; preds = %24, %12
  %28 = phi i64 [ %.pre.i, %24 ], [ %13, %12 ]
  %.029.i = phi ptr [ %16, %24 ], [ %11, %12 ]
  %29 = getelementptr inbounds i8, ptr %.029.i, i64 16
  %30 = add nsw i64 %28, 1
  %31 = getelementptr inbounds [255 x %struct._zval_struct], ptr %29, i64 0, i64 %28, i32 1
  store i32 0, ptr %31, align 8
  %32 = getelementptr inbounds [255 x %struct._zval_struct], ptr %29, i64 0, i64 %28, i32 2
  store i32 0, ptr %32, align 4
  store i64 %30, ptr %.029.i, align 8
  %33 = getelementptr inbounds [255 x %struct._zval_struct], ptr %29, i64 0, i64 %28
  %34 = load ptr, ptr %1, align 8
  %35 = load i32, ptr %3, align 8
  store ptr %34, ptr %33, align 8
  %36 = getelementptr inbounds i8, ptr %33, i64 8
  store i32 %35, ptr %36, align 8
  %37 = and i32 %35, 65280
  %.not14 = icmp eq i32 %37, 0
  br i1 %.not14, label %var_tmp_var.exit.thread, label %38

38:                                               ; preds = %27
  %39 = load i32, ptr %34, align 4
  %40 = add i32 %39, 1
  store i32 %40, ptr %34, align 4
  br label %var_tmp_var.exit.thread

var_tmp_var.exit.thread:                          ; preds = %6, %38, %27, %2
  ret void
}